; Function Attrs: mustprogress uwtable
define noundef zeroext i1 @_ZN6icu_776number4impl16GeneratorHelpers9unitWidthERKNS1_10MacroPropsERNS_13UnicodeStringER10UErrorCode(ptr noundef nonnull readonly align 8 captures(none) dereferenceable(472) %0, ptr noundef nonnull align 8 dereferenceable(64) %1, ptr noundef nonnull readnone align 4 captures(none) dereferenceable(4) %2) local_unnamed_addr #1 align 2 {
  %4 = getelementptr inbounds nuw i8, ptr %0, i64 152
  %5 = load i32, ptr %4, align 8, !tbaa !66
  switch i32 %5, label %6 [
    i32 1, label %7
    i32 7, label %7
  ]

6:                                                ; preds = %3
  tail call void @_ZN6icu_776number4impl19enum_to_stem_string9unitWidthE16UNumberUnitWidthRNS_13UnicodeStringE(i32 noundef %5, ptr noundef nonnull align 8 dereferenceable(64) %1)
  br label %7

7:                                                ; preds = %3, %3, %6
  %.0 = phi i1 [ true, %6 ], [ false, %3 ], [ false, %3 ]
  ret i1 %.0
}